; Function Attrs: nounwind uwtable
define noalias nonnull ptr @l_Lean_instInhabitedScopedEnvExtension___rarg___lambda__1___boxed(ptr noundef %0, ptr noundef %1, ptr noundef %2) #2 {
  %4 = load ptr, ptr @l_Lean_ScopedEnvExtension_instInhabitedDescr___rarg___lambda__1___closed__2, align 8, !tbaa !9
  tail call void @lean_inc_heartbeat() #7
  %5 = tail call noalias ptr @mi_malloc_small(i64 noundef 24) #7
  %6 = icmp eq ptr %5, null
  br i1 %6, label %7, label %l_Lean_instInhabitedScopedEnvExtension___rarg___lambda__1.exit

7:                                                ; preds = %3
  tail call void @lean_internal_panic_out_of_memory() #8
  unreachable

l_Lean_instInhabitedScopedEnvExtension___rarg___lambda__1.exit: ; preds = %3
  %8 = getelementptr inbounds nuw i8, ptr %5, i64 4
  store i32 1, ptr %5, align 4, !tbaa !4
  store i32 16908312, ptr %8, align 4
  %9 = getelementptr inbounds nuw i8, ptr %5, i64 8
  store ptr %4, ptr %9, align 8, !tbaa !9
  %10 = getelementptr inbounds nuw i8, ptr %5, i64 16
  store ptr %2, ptr %10, align 8, !tbaa !9
  %11 = ptrtoint ptr %1 to i64
  %12 = and i64 %11, 1
  %.not = icmp eq i64 %12, 0
  br i1 %.not, label %13, label %lean_dec.exit6

13:                                               ; preds = %l_Lean_instInhabitedScopedEnvExtension___rarg___lambda__1.exit
  %14 = load i32, ptr %1, align 4, !tbaa !4
  %15 = icmp sgt i32 %14, 1
  br i1 %15, label %16, label %18, !prof !11

16:                                               ; preds = %13
  %17 = add nsw i32 %14, -1
  store i32 %17, ptr %1, align 4, !tbaa !4
  br label %lean_dec.exit6

18:                                               ; preds = %13
  %.not.i = icmp eq i32 %14, 0
  br i1 %.not.i, label %lean_dec.exit6, label %19

19:                                               ; preds = %18
  tail call void @lean_dec_ref_cold(ptr noundef nonnull %1) #7
  br label %lean_dec.exit6

lean_dec.exit6:                                   ; preds = %19, %18, %16, %l_Lean_instInhabitedScopedEnvExtension___rarg___lambda__1.exit
  %20 = ptrtoint ptr %0 to i64
  %21 = and i64 %20, 1
  %.not9 = icmp eq i64 %21, 0
  br i1 %.not9, label %22, label %lean_dec.exit

22:                                               ; preds = %lean_dec.exit6
  %23 = load i32, ptr %0, align 4, !tbaa !4
  %24 = icmp sgt i32 %23, 1
  br i1 %24, label %25, label %27, !prof !11

25:                                               ; preds = %22
  %26 = add nsw i32 %23, -1
  store i32 %26, ptr %0, align 4, !tbaa !4
  br label %lean_dec.exit

27:                                               ; preds = %22
  %.not.i7 = icmp eq i32 %23, 0
  br i1 %.not.i7, label %lean_dec.exit, label %28

28:                                               ; preds = %27
  tail call void @lean_dec_ref_cold(ptr noundef nonnull %0) #7
  br label %lean_dec.exit

lean_dec.exit:                                    ; preds = %28, %27, %25, %lean_dec.exit6
  ret ptr %5
}